target datalayout = "e-m:e-p270:32:32-p271:32:32-p272:64:64-i64:64-i128:128-f80:128-n8:16:32:64-S128"
target triple = "x86_64-unknown-linux-gnu"

%"class.std::__cxx11::basic_string" = type { %"struct.std::__cxx11::basic_string<char>::_Alloc_hider", i64, %union.anon }
%"struct.std::__cxx11::basic_string<char>::_Alloc_hider" = type { ptr }
%union.anon = type { i64, [8 x i8] }

@.str.25 = private unnamed_addr constant [10 x i8] c"invariant\00", align 1
@.str.26 = private unnamed_addr constant [10 x i8] c"covariant\00", align 1
@.str.27 = private unnamed_addr constant [20 x i8] c"covariant normalize\00", align 1
@.str.28 = private unnamed_addr constant [23 x i8] c"contravariant relative\00", align 1
@.str.29 = private unnamed_addr constant [23 x i8] c"contravariant absolute\00", align 1

; Function Attrs: mustprogress uwtable
define void @_ZN7openvdb5v11_08GridBase15vecTypeToStringB5cxx11ENS0_7VecTypeE(ptr noalias sret(%"class.std::__cxx11::basic_string") align 8 %agg.result, i32 noundef %typ) #4 align 2 personality ptr @__gxx_personality_v0 {
entry:
  %result.ptr = alloca ptr, align 8
  %typ.addr = alloca i32, align 4
  %nrvo = alloca i1, align 1
  %exn.slot = alloca ptr, align 8
  %ehselector.slot = alloca i32, align 4
  store ptr %agg.result, ptr %result.ptr, align 8
  store i32 %typ, ptr %typ.addr, align 4
  store i1 false, ptr %nrvo, align 1
  call void @_ZNSt7__cxx1112basic_stringIcSt11char_traitsIcESaIcEEC1Ev(ptr noundef nonnull align 8 dereferenceable(32) %agg.result) #3
  %0 = load i32, ptr %typ.addr, align 4
  switch i32 %0, label %sw.epilog [
    i32 0, label %sw.bb
    i32 1, label %sw.bb1
    i32 2, label %sw.bb4
    i32 3, label %sw.bb7
    i32 4, label %sw.bb10
  ]

sw.bb:                                            ; preds = %entry
  %call = invoke noundef nonnull align 8 dereferenceable(32) ptr @_ZNSt7__cxx1112basic_stringIcSt11char_traitsIcESaIcEEaSEPKc(ptr noundef nonnull align 8 dereferenceable(32) %agg.result, ptr noundef @.str.25)
          to label %invoke.cont unwind label %lpad

invoke.cont:                                      ; preds = %sw.bb
  br label %sw.epilog

lpad:                                             ; preds = %sw.bb10, %sw.bb7, %sw.bb4, %sw.bb1, %sw.bb
  %1 = landingpad { ptr, i32 }
          cleanup
  %2 = extractvalue { ptr, i32 } %1, 0
  store ptr %2, ptr %exn.slot, align 8
  %3 = extractvalue { ptr, i32 } %1, 1
  store i32 %3, ptr %ehselector.slot, align 4
  call void @_ZNSt7__cxx1112basic_stringIcSt11char_traitsIcESaIcEED1Ev(ptr noundef nonnull align 8 dereferenceable(32) %agg.result) #3
  br label %eh.resume

sw.bb1:                                           ; preds = %entry
  %call3 = invoke noundef nonnull align 8 dereferenceable(32) ptr @_ZNSt7__cxx1112basic_stringIcSt11char_traitsIcESaIcEEaSEPKc(ptr noundef nonnull align 8 dereferenceable(32) %agg.result, ptr noundef @.str.26)
          to label %invoke.cont2 unwind label %lpad

invoke.cont2:                                     ; preds = %sw.bb1
  br label %sw.epilog

sw.bb4:                                           ; preds = %entry
  %call6 = invoke noundef nonnull align 8 dereferenceable(32) ptr @_ZNSt7__cxx1112basic_stringIcSt11char_traitsIcESaIcEEaSEPKc(ptr noundef nonnull align 8 dereferenceable(32) %agg.result, ptr noundef @.str.27)
          to label %invoke.cont5 unwind label %lpad

invoke.cont5:                                     ; preds = %sw.bb4
  br label %sw.epilog

sw.bb7:                                           ; preds = %entry
  %call9 = invoke noundef nonnull align 8 dereferenceable(32) ptr @_ZNSt7__cxx1112basic_stringIcSt11char_traitsIcESaIcEEaSEPKc(ptr noundef nonnull align 8 dereferenceable(32) %agg.result, ptr noundef @.str.28)
          to label %invoke.cont8 unwind label %lpad

invoke.cont8:                                     ; preds = %sw.bb7
  br label %sw.epilog

sw.bb10:                                          ; preds = %entry
  %call12 = invoke noundef nonnull align 8 dereferenceable(32) ptr @_ZNSt7__cxx1112basic_stringIcSt11char_traitsIcESaIcEEaSEPKc(ptr noundef nonnull align 8 dereferenceable(32) %agg.result, ptr noundef @.str.29)
          to label %invoke.cont11 unwind label %lpad

invoke.cont11:                                    ; preds = %sw.bb10
  br label %sw.epilog

sw.epilog:                                        ; preds = %invoke.cont11, %invoke.cont8, %invoke.cont5, %invoke.cont2, %invoke.cont, %entry
  store i1 true, ptr %nrvo, align 1
  %nrvo.val = load i1, ptr %nrvo, align 1
  br i1 %nrvo.val, label %nrvo.skipdtor, label %nrvo.unused

nrvo.unused:                                      ; preds = %sw.epilog
  call void @_ZNSt7__cxx1112basic_stringIcSt11char_traitsIcESaIcEED1Ev(ptr noundef nonnull align 8 dereferenceable(32) %agg.result) #3
  br label %nrvo.skipdtor

nrvo.skipdtor:                                    ; preds = %nrvo.unused, %sw.epilog
  ret void

eh.resume:                                        ; preds = %lpad
  %exn = load ptr, ptr %exn.slot, align 8
  %sel = load i32, ptr %ehselector.slot, align 4
  %lpad.val = insertvalue { ptr, i32 } poison, ptr %exn, 0
  %lpad.val13 = insertvalue { ptr, i32 } %lpad.val, i32 %sel, 1
  resume { ptr, i32 } %lpad.val13
}