; Function Attrs: mustprogress uwtable
define void @_ZN7openvdb5v11_08GridBase15vecTypeToStringB5cxx11ENS0_7VecTypeE(ptr noalias nonnull sret(%"class.std::__cxx11::basic_string") align 8 %agg.result, i32 noundef %typ) local_unnamed_addr #5 align 2 personality ptr @__gxx_personality_v0 {
entry:
  tail call void @_ZNSt7__cxx1112basic_stringIcSt11char_traitsIcESaIcEEC1Ev(ptr noundef nonnull align 8 dereferenceable(32) %agg.result) #18
  %0 = icmp ult i32 %typ, 5
  br i1 %0, label %switch.lookup, label %nrvo.skipdtor

lpad:                                             ; preds = %switch.lookup
  %1 = landingpad { ptr, i32 }
          cleanup
  tail call void @_ZNSt7__cxx1112basic_stringIcSt11char_traitsIcESaIcEED1Ev(ptr noundef nonnull align 8 dereferenceable(32) %agg.result) #18
  resume { ptr, i32 } %1

switch.lookup:                                    ; preds = %entry
  %2 = zext nneg i32 %typ to i64
  %switch.gep = getelementptr inbounds [5 x ptr], ptr @switch.table._ZN7openvdb5v11_08GridBase13setVectorTypeENS0_7VecTypeE, i64 0, i64 %2
  %switch.load = load ptr, ptr %switch.gep, align 8
  %3 = invoke noundef nonnull align 8 dereferenceable(32) ptr @_ZNSt7__cxx1112basic_stringIcSt11char_traitsIcESaIcEEaSEPKc(ptr noundef nonnull align 8 dereferenceable(32) %agg.result, ptr noundef nonnull %switch.load)
          to label %nrvo.skipdtor unwind label %lpad

nrvo.skipdtor:                                    ; preds = %entry, %switch.lookup
  ret void
}